; Function Attrs: mustprogress uwtable
define dso_local noundef zeroext i1 @_ZN3url21GetStandardSchemeTypeEPKcRKNS_9ComponentEPNS_10SchemeTypeE(ptr noundef %spec, ptr nocapture noundef nonnull readonly align 4 dereferenceable(8) %scheme, ptr nocapture noundef writeonly %type) local_unnamed_addr #0 {
entry:
  %agg.tmp.i.i = alloca %"class.base::BasicStringPiece", align 8
  %agg.tmp6.i.i = alloca %"class.base::BasicStringPiece", align 8
  tail call fastcc void @_ZN3url12_GLOBAL__N_111InitSchemesEPPSt6vectorINS_14SchemeWithTypeESaIS2_EEPKS2_m(ptr noundef nonnull @_ZN3url12_GLOBAL__N_116standard_schemesE, ptr noundef nonnull @_ZN3url12_GLOBAL__N_119kStandardURLSchemesE, i64 noundef 8)
  %0 = load ptr, ptr @_ZN3url12_GLOBAL__N_116standard_schemesE, align 8
  %.val.i = load ptr, ptr %0, align 8
  %1 = getelementptr i8, ptr %0, i64 8
  %.val1.i = load ptr, ptr %1, align 8
  call void @llvm.lifetime.start.p0(i64 16, ptr nonnull %agg.tmp.i.i)
  call void @llvm.lifetime.start.p0(i64 16, ptr nonnull %agg.tmp6.i.i)
  %len.i.i.i = getelementptr inbounds i8, ptr %scheme, i64 4
  %2 = load i32, ptr %len.i.i.i, align 4
  %cmp.i.i.i = icmp slt i32 %2, 1
  %cmp.i5.not4.i.i = icmp eq ptr %.val.i, %.val1.i
  %or.cond.i.i = select i1 %cmp.i.i.i, i1 true, i1 %cmp.i5.not4.i.i
  br i1 %or.cond.i.i, label %_ZN3url12_GLOBAL__N_112DoIsStandardIcEEbPKT_RKNS_9ComponentEPNS_10SchemeTypeE.exit, label %for.body.lr.ph.i.i

for.body.lr.ph.i.i:                               ; preds = %entry
  %3 = getelementptr inbounds i8, ptr %agg.tmp.i.i, i64 8
  %4 = getelementptr inbounds i8, ptr %agg.tmp6.i.i, i64 8
  br label %for.body.i.i

for.body.i.i:                                     ; preds = %for.inc.i.i, %for.body.lr.ph.i.i
  %__begin2.sroa.0.05.i.i = phi ptr [ %.val.i, %for.body.lr.ph.i.i ], [ %incdec.ptr.i.i.i, %for.inc.i.i ]
  %5 = load i32, ptr %scheme, align 4
  %idxprom.i.i = sext i32 %5 to i64
  %arrayidx.i.i = getelementptr inbounds i8, ptr %spec, i64 %idxprom.i.i
  %6 = load i32, ptr %len.i.i.i, align 4
  %conv.i.i = sext i32 %6 to i64
  call void @_ZN4base16BasicStringPieceINSt7__cxx1112basic_stringIcSt11char_traitsIcESaIcEEEEC1EPKcm(ptr noundef nonnull align 8 dereferenceable(16) %agg.tmp.i.i, ptr noundef %arrayidx.i.i, i64 noundef %conv.i.i)
  %7 = load ptr, ptr %__begin2.sroa.0.05.i.i, align 8
  call void @_ZN4base16BasicStringPieceINSt7__cxx1112basic_stringIcSt11char_traitsIcESaIcEEEEC1EPKc(ptr noundef nonnull align 8 dereferenceable(16) %agg.tmp6.i.i, ptr noundef %7)
  %8 = load ptr, ptr %agg.tmp.i.i, align 8
  %9 = load i64, ptr %3, align 8
  %10 = load ptr, ptr %agg.tmp6.i.i, align 8
  %11 = load i64, ptr %4, align 8
  %call8.i.i = call noundef zeroext i1 @_ZN4base20LowerCaseEqualsASCIIENS_16BasicStringPieceINSt7__cxx1112basic_stringIcSt11char_traitsIcESaIcEEEEES7_(ptr %8, i64 %9, ptr %10, i64 %11)
  br i1 %call8.i.i, label %if.then9.i.i, label %for.inc.i.i

if.then9.i.i:                                     ; preds = %for.body.i.i
  %type10.i.i = getelementptr inbounds i8, ptr %__begin2.sroa.0.05.i.i, i64 8
  %12 = load i32, ptr %type10.i.i, align 8
  store i32 %12, ptr %type, align 4
  br label %_ZN3url12_GLOBAL__N_112DoIsStandardIcEEbPKT_RKNS_9ComponentEPNS_10SchemeTypeE.exit

for.inc.i.i:                                      ; preds = %for.body.i.i
  %incdec.ptr.i.i.i = getelementptr inbounds i8, ptr %__begin2.sroa.0.05.i.i, i64 16
  %cmp.i5.not.i.i = icmp eq ptr %incdec.ptr.i.i.i, %.val1.i
  br i1 %cmp.i5.not.i.i, label %_ZN3url12_GLOBAL__N_112DoIsStandardIcEEbPKT_RKNS_9ComponentEPNS_10SchemeTypeE.exit, label %for.body.i.i

_ZN3url12_GLOBAL__N_112DoIsStandardIcEEbPKT_RKNS_9ComponentEPNS_10SchemeTypeE.exit: ; preds = %for.inc.i.i, %entry, %if.then9.i.i
  %retval.0.i.i = phi i1 [ true, %if.then9.i.i ], [ false, %entry ], [ false, %for.inc.i.i ]
  call void @llvm.lifetime.end.p0(i64 16, ptr nonnull %agg.tmp.i.i)
  call void @llvm.lifetime.end.p0(i64 16, ptr nonnull %agg.tmp6.i.i)
  ret i1 %retval.0.i.i
}